; Function Attrs: nounwind uwtable
define hidden ptr @sockaddrToUnixAddressBytes(ptr noundef %0, ptr noundef %1, i32 noundef %2) local_unnamed_addr #0 {
  %4 = load i16, ptr %1, align 2
  %5 = icmp eq i16 %4, 1
  br i1 %5, label %6, label %27

6:                                                ; preds = %3
  %7 = icmp eq i32 %2, 2
  br i1 %7, label %12, label %8

8:                                                ; preds = %6
  %9 = getelementptr inbounds i8, ptr %1, i64 2
  %10 = tail call i64 @strlen(ptr noundef nonnull dereferenceable(1) %9) #8
  %11 = trunc i64 %10 to i32
  br label %12

12:                                               ; preds = %6, %8
  %.015 = phi i32 [ %11, %8 ], [ 0, %6 ]
  %13 = load ptr, ptr %0, align 8
  %14 = getelementptr inbounds i8, ptr %13, i64 1408
  %15 = load ptr, ptr %14, align 8
  %16 = tail call ptr %15(ptr noundef nonnull %0, i32 noundef %.015) #9
  %.not = icmp eq i32 %.015, 0
  br i1 %.not, label %26, label %17

17:                                               ; preds = %12
  %18 = load ptr, ptr %0, align 8
  %19 = getelementptr inbounds i8, ptr %18, i64 1664
  %20 = load ptr, ptr %19, align 8
  %21 = getelementptr inbounds i8, ptr %1, i64 2
  tail call void %20(ptr noundef nonnull %0, ptr noundef %16, i32 noundef 0, i32 noundef %.015, ptr noundef nonnull %21) #9
  %22 = load ptr, ptr %0, align 8
  %23 = getelementptr inbounds i8, ptr %22, i64 120
  %24 = load ptr, ptr %23, align 8
  %25 = tail call ptr %24(ptr noundef nonnull %0) #9
  %.not16 = icmp eq ptr %25, null
  br i1 %.not16, label %26, label %27

26:                                               ; preds = %17, %12
  br label %27

27:                                               ; preds = %3, %17, %26
  %.0 = phi ptr [ %16, %26 ], [ null, %17 ], [ null, %3 ]
  ret ptr %.0
}